; Function Attrs: nounwind uwtable
define ptr @l___private_Std_Sync_Channel_0__Std_Channel_Sync_forIn___rarg(ptr noundef %0, ptr noundef %1, ptr noundef %2, ptr noundef %3, ptr noundef %4, ptr noundef %5) #1 {
  %7 = getelementptr inbounds nuw i8, ptr %1, i64 16
  %8 = load ptr, ptr %7, align 8, !tbaa !10
  %9 = ptrtoint ptr %8 to i64
  %10 = and i64 %9, 1
  %.not = icmp eq i64 %10, 0
  br i1 %.not, label %11, label %lean_inc.exit33

11:                                               ; preds = %6
  %.val.i = load i32, ptr %8, align 4, !tbaa !4
  %12 = icmp sgt i32 %.val.i, 0
  br i1 %12, label %13, label %15, !prof !9

13:                                               ; preds = %11
  %14 = add nuw i32 %.val.i, 1
  store i32 %14, ptr %8, align 4, !tbaa !4
  br label %lean_inc.exit33

15:                                               ; preds = %11
  %.not.i = icmp eq i32 %.val.i, 0
  br i1 %.not.i, label %lean_inc.exit33, label %16

16:                                               ; preds = %15
  tail call void @lean_inc_ref_cold(ptr noundef nonnull %8) #7
  br label %lean_inc.exit33

lean_inc.exit33:                                  ; preds = %16, %15, %13, %6
  %17 = ptrtoint ptr %3 to i64
  %18 = and i64 %17, 1
  %.not47 = icmp eq i64 %18, 0
  br i1 %.not47, label %19, label %lean_inc.exit32

19:                                               ; preds = %lean_inc.exit33
  %.val.i34 = load i32, ptr %3, align 4, !tbaa !4
  %20 = icmp sgt i32 %.val.i34, 0
  br i1 %20, label %21, label %23, !prof !9

21:                                               ; preds = %19
  %22 = add nuw i32 %.val.i34, 1
  store i32 %22, ptr %3, align 4, !tbaa !4
  br label %lean_inc.exit32

23:                                               ; preds = %19
  %.not.i35 = icmp eq i32 %.val.i34, 0
  br i1 %.not.i35, label %lean_inc.exit32, label %24

24:                                               ; preds = %23
  tail call void @lean_inc_ref_cold(ptr noundef nonnull %3) #7
  br label %lean_inc.exit32

lean_inc.exit32:                                  ; preds = %24, %23, %21, %lean_inc.exit33
  %25 = ptrtoint ptr %0 to i64
  %26 = and i64 %25, 1
  %.not48 = icmp eq i64 %26, 0
  br i1 %.not48, label %27, label %lean_inc.exit31

27:                                               ; preds = %lean_inc.exit32
  %.val.i37 = load i32, ptr %0, align 4, !tbaa !4
  %28 = icmp sgt i32 %.val.i37, 0
  br i1 %28, label %29, label %31, !prof !9

29:                                               ; preds = %27
  %30 = add nuw i32 %.val.i37, 1
  store i32 %30, ptr %0, align 4, !tbaa !4
  br label %lean_inc.exit31

31:                                               ; preds = %27
  %.not.i38 = icmp eq i32 %.val.i37, 0
  br i1 %.not.i38, label %lean_inc.exit31, label %32

32:                                               ; preds = %31
  tail call void @lean_inc_ref_cold(ptr noundef nonnull %0) #7
  br label %lean_inc.exit31

lean_inc.exit31:                                  ; preds = %32, %31, %29, %lean_inc.exit32
  tail call void @lean_inc_heartbeat() #7
  %33 = tail call noalias ptr @mi_malloc_small(i64 noundef 40) #7
  %34 = icmp eq ptr %33, null
  br i1 %34, label %35, label %lean_alloc_closure.exit

35:                                               ; preds = %lean_inc.exit31
  tail call void @lean_internal_panic_out_of_memory() #8
  unreachable

lean_alloc_closure.exit:                          ; preds = %lean_inc.exit31
  %36 = getelementptr inbounds nuw i8, ptr %33, i64 4
  store i32 1, ptr %33, align 4, !tbaa !4
  store i32 -184549336, ptr %36, align 4
  %37 = getelementptr inbounds nuw i8, ptr %33, i64 8
  store ptr @l_Std_Channel_Sync_recv___rarg, ptr %37, align 8, !tbaa !10
  %38 = getelementptr inbounds nuw i8, ptr %33, i64 16
  store i16 3, ptr %38, align 8, !tbaa !12
  %39 = getelementptr inbounds nuw i8, ptr %33, i64 18
  store i16 2, ptr %39, align 2, !tbaa !12
  %40 = getelementptr inbounds nuw i8, ptr %33, i64 24
  store ptr %0, ptr %40, align 8, !tbaa !10
  %41 = getelementptr inbounds nuw i8, ptr %33, i64 32
  store ptr %3, ptr %41, align 8, !tbaa !10
  %42 = ptrtoint ptr %2 to i64
  %43 = and i64 %42, 1
  %.not49 = icmp eq i64 %43, 0
  br i1 %.not49, label %44, label %lean_inc.exit30

44:                                               ; preds = %lean_alloc_closure.exit
  %.val.i40 = load i32, ptr %2, align 4, !tbaa !4
  %45 = icmp sgt i32 %.val.i40, 0
  br i1 %45, label %46, label %48, !prof !9

46:                                               ; preds = %44
  %47 = add nuw i32 %.val.i40, 1
  store i32 %47, ptr %2, align 4, !tbaa !4
  br label %lean_inc.exit30

48:                                               ; preds = %44
  %.not.i41 = icmp eq i32 %.val.i40, 0
  br i1 %.not.i41, label %lean_inc.exit30, label %49

49:                                               ; preds = %48
  tail call void @lean_inc_ref_cold(ptr noundef nonnull %2) #7
  br label %lean_inc.exit30

lean_inc.exit30:                                  ; preds = %49, %48, %46, %lean_alloc_closure.exit
  %50 = tail call ptr @lean_apply_2(ptr noundef %2, ptr noundef nonnull inttoptr (i64 1 to ptr), ptr noundef nonnull %33) #7
  br i1 %.not, label %51, label %lean_inc.exit

51:                                               ; preds = %lean_inc.exit30
  %.val.i43 = load i32, ptr %8, align 4, !tbaa !4
  %52 = icmp sgt i32 %.val.i43, 0
  br i1 %52, label %53, label %55, !prof !9

53:                                               ; preds = %51
  %54 = add nuw i32 %.val.i43, 1
  store i32 %54, ptr %8, align 4, !tbaa !4
  br label %lean_inc.exit

55:                                               ; preds = %51
  %.not.i44 = icmp eq i32 %.val.i43, 0
  br i1 %.not.i44, label %lean_inc.exit, label %56

56:                                               ; preds = %55
  tail call void @lean_inc_ref_cold(ptr noundef nonnull %8) #7
  br label %lean_inc.exit

lean_inc.exit:                                    ; preds = %56, %55, %53, %lean_inc.exit30
  tail call void @lean_inc_heartbeat() #7
  %57 = tail call noalias ptr @mi_malloc_small(i64 noundef 80) #7
  %58 = icmp eq ptr %57, null
  br i1 %58, label %59, label %lean_alloc_closure.exit46

59:                                               ; preds = %lean_inc.exit
  tail call void @lean_internal_panic_out_of_memory() #8
  unreachable

lean_alloc_closure.exit46:                        ; preds = %lean_inc.exit
  %60 = getelementptr inbounds nuw i8, ptr %57, i64 4
  store i32 1, ptr %57, align 4, !tbaa !4
  store i32 -184549296, ptr %60, align 4
  %61 = getelementptr inbounds nuw i8, ptr %57, i64 8
  store ptr @l___private_Std_Sync_Channel_0__Std_Channel_Sync_forIn___rarg___lambda__2, ptr %61, align 8, !tbaa !10
  %62 = getelementptr inbounds nuw i8, ptr %57, i64 16
  store i16 8, ptr %62, align 8, !tbaa !12
  %63 = getelementptr inbounds nuw i8, ptr %57, i64 18
  store i16 7, ptr %63, align 2, !tbaa !12
  %64 = getelementptr inbounds nuw i8, ptr %57, i64 24
  store ptr %4, ptr %64, align 8, !tbaa !10
  %65 = getelementptr inbounds nuw i8, ptr %57, i64 32
  store ptr %5, ptr %65, align 8, !tbaa !10
  %66 = getelementptr inbounds nuw i8, ptr %57, i64 40
  store ptr %1, ptr %66, align 8, !tbaa !10
  %67 = getelementptr inbounds nuw i8, ptr %57, i64 48
  store ptr %0, ptr %67, align 8, !tbaa !10
  %68 = getelementptr inbounds nuw i8, ptr %57, i64 56
  store ptr %2, ptr %68, align 8, !tbaa !10
  %69 = getelementptr inbounds nuw i8, ptr %57, i64 64
  store ptr %3, ptr %69, align 8, !tbaa !10
  %70 = getelementptr inbounds nuw i8, ptr %57, i64 72
  store ptr %8, ptr %70, align 8, !tbaa !10
  %71 = tail call ptr @lean_apply_4(ptr noundef %8, ptr noundef nonnull inttoptr (i64 1 to ptr), ptr noundef nonnull inttoptr (i64 1 to ptr), ptr noundef %50, ptr noundef nonnull %57) #7
  ret ptr %71
}